target datalayout = "e-m:e-p270:32:32-p271:32:32-p272:64:64-i64:64-i128:128-f80:128-n8:16:32:64-S128"
target triple = "x86_64-unknown-linux-gnu"

%"class.QuantLib::SquareRootProcessRNDCalculator" = type { %"class.QuantLib::RiskNeutralDensityCalculator", double, double, double, double, double }
%"class.QuantLib::RiskNeutralDensityCalculator" = type { ptr }

; Function Attrs: inlinehint mustprogress nounwind uwtable
define linkonce_odr void @_ZN8QuantLib28RiskNeutralDensityCalculatorC2Ev(ptr noundef nonnull align 8 dereferenceable(8) %this) unnamed_addr #1 comdat align 2 {
entry:
  %this.addr = alloca ptr, align 8
  store ptr %this, ptr %this.addr, align 8, !tbaa !3
  %this1 = load ptr, ptr %this.addr, align 8
  store ptr getelementptr inbounds inrange(-16, 40) ({ [7 x ptr] }, ptr @_ZTVN8QuantLib28RiskNeutralDensityCalculatorE, i32 0, i32 0, i32 2), ptr %this1, align 8, !tbaa !9
  ret void
}

; Function Attrs: mustprogress nounwind uwtable
define void @_ZN8QuantLib30SquareRootProcessRNDCalculatorC2Edddd(ptr noundef nonnull align 8 dereferenceable(48) %this, double noundef %v0, double noundef %kappa, double noundef %theta, double noundef %sigma) unnamed_addr #0 align 2 {
entry:
  %this.addr = alloca ptr, align 8
  %v0.addr = alloca double, align 8
  %kappa.addr = alloca double, align 8
  %theta.addr = alloca double, align 8
  %sigma.addr = alloca double, align 8
  store ptr %this, ptr %this.addr, align 8, !tbaa !3
  store double %v0, ptr %v0.addr, align 8, !tbaa !7
  store double %kappa, ptr %kappa.addr, align 8, !tbaa !7
  store double %theta, ptr %theta.addr, align 8, !tbaa !7
  store double %sigma, ptr %sigma.addr, align 8, !tbaa !7
  %this1 = load ptr, ptr %this.addr, align 8
  call void @_ZN8QuantLib28RiskNeutralDensityCalculatorC2Ev(ptr noundef nonnull align 8 dereferenceable(8) %this1) #25
  store ptr getelementptr inbounds inrange(-16, 40) ({ [7 x ptr] }, ptr @_ZTVN8QuantLib30SquareRootProcessRNDCalculatorE, i32 0, i32 0, i32 2), ptr %this1, align 8, !tbaa !9
  %v0_ = getelementptr inbounds nuw %"class.QuantLib::SquareRootProcessRNDCalculator", ptr %this1, i32 0, i32 1
  %0 = load double, ptr %v0.addr, align 8, !tbaa !7
  store double %0, ptr %v0_, align 8, !tbaa !11
  %kappa_ = getelementptr inbounds nuw %"class.QuantLib::SquareRootProcessRNDCalculator", ptr %this1, i32 0, i32 2
  %1 = load double, ptr %kappa.addr, align 8, !tbaa !7
  store double %1, ptr %kappa_, align 8, !tbaa !14
  %theta_ = getelementptr inbounds nuw %"class.QuantLib::SquareRootProcessRNDCalculator", ptr %this1, i32 0, i32 3
  %2 = load double, ptr %theta.addr, align 8, !tbaa !7
  store double %2, ptr %theta_, align 8, !tbaa !15
  %d_ = getelementptr inbounds nuw %"class.QuantLib::SquareRootProcessRNDCalculator", ptr %this1, i32 0, i32 4
  %3 = load double, ptr %kappa.addr, align 8, !tbaa !7
  %mul = fmul double 4.000000e+00, %3
  %4 = load double, ptr %sigma.addr, align 8, !tbaa !7
  %5 = load double, ptr %sigma.addr, align 8, !tbaa !7
  %mul2 = fmul double %4, %5
  %div = fdiv double %mul, %mul2
  store double %div, ptr %d_, align 8, !tbaa !16
  %df_ = getelementptr inbounds nuw %"class.QuantLib::SquareRootProcessRNDCalculator", ptr %this1, i32 0, i32 5
  %d_3 = getelementptr inbounds nuw %"class.QuantLib::SquareRootProcessRNDCalculator", ptr %this1, i32 0, i32 4
  %6 = load double, ptr %d_3, align 8, !tbaa !16
  %7 = load double, ptr %theta.addr, align 8, !tbaa !7
  %mul4 = fmul double %6, %7
  store double %mul4, ptr %df_, align 8, !tbaa !17
  ret void
}