; Function Attrs: mustprogress nofree norecurse nosync nounwind willreturn memory(argmem: write) uwtable
define void @_ZN8QuantLib30SquareRootProcessRNDCalculatorC2Edddd(ptr nocapture noundef nonnull writeonly align 8 dereferenceable(48) %this, double noundef %v0, double noundef %kappa, double noundef %theta, double noundef %sigma) unnamed_addr #0 align 2 {
entry:
  store ptr getelementptr inbounds inrange(-16, 40) (i8, ptr @_ZTVN8QuantLib30SquareRootProcessRNDCalculatorE, i64 16), ptr %this, align 8, !tbaa !3
  %v0_ = getelementptr inbounds nuw i8, ptr %this, i64 8
  store double %v0, ptr %v0_, align 8, !tbaa !6
  %kappa_ = getelementptr inbounds nuw i8, ptr %this, i64 16
  store double %kappa, ptr %kappa_, align 8, !tbaa !11
  %theta_ = getelementptr inbounds nuw i8, ptr %this, i64 24
  store double %theta, ptr %theta_, align 8, !tbaa !12
  %d_ = getelementptr inbounds nuw i8, ptr %this, i64 32
  %mul = fmul double %kappa, 4.000000e+00
  %mul2 = fmul double %sigma, %sigma
  %div = fdiv double %mul, %mul2
  store double %div, ptr %d_, align 8, !tbaa !13
  %df_ = getelementptr inbounds nuw i8, ptr %this, i64 40
  %mul4 = fmul double %theta, %div
  store double %mul4, ptr %df_, align 8, !tbaa !14
  ret void
}